; ModuleID = '44/1137.c'
source_filename = "44/1137.c"
target datalayout = "e-m:e-p270:32:32-p271:32:32-p272:64:64-i64:64-f80:128-n8:16:32:64-S128"
target triple = "x86_64-pc-linux-gnu"

@.str = private unnamed_addr constant [3 x i8] c"%d\00", align 1
@.str.1 = private unnamed_addr constant [4 x i8] c"%d\0A\00", align 1

; Function Attrs: noinline nounwind uwtable
define dso_local void @main() #0 {
  %1 = alloca i32, align 4
  %2 = alloca [6 x i32], align 16
  %3 = alloca [6 x i32], align 16
  store i32 0, i32* %1, align 4
  br label %4

4:                                                ; preds = %12, %0
  %5 = load i32, i32* %1, align 4
  %6 = icmp slt i32 %5, 6
  br i1 %6, label %7, label %15

7:                                                ; preds = %4
  %8 = load i32, i32* %1, align 4
  %9 = sext i32 %8 to i64
  %10 = getelementptr inbounds [6 x i32], [6 x i32]* %2, i64 0, i64 %9
  %11 = call i32 (i8*, ...) @__isoc99_scanf(i8* getelementptr inbounds ([3 x i8], [3 x i8]* @.str, i64 0, i64 0), i32* %10)
  br label %12

12:                                               ; preds = %7
  %13 = load i32, i32* %1, align 4
  %14 = add nsw i32 %13, 1
  store i32 %14, i32* %1, align 4
  br label %4

15:                                               ; preds = %4
  store i32 0, i32* %1, align 4
  br label %16

16:                                               ; preds = %51, %15
  %17 = load i32, i32* %1, align 4
  %18 = icmp slt i32 %17, 6
  br i1 %18, label %19, label %54

19:                                               ; preds = %16
  %20 = load i32, i32* %1, align 4
  %21 = sext i32 %20 to i64
  %22 = getelementptr inbounds [6 x i32], [6 x i32]* %2, i64 0, i64 %21
  %23 = load i32, i32* %22, align 4
  %24 = icmp sgt i32 %23, 0
  br i1 %24, label %25, label %34

25:                                               ; preds = %19
  %26 = load i32, i32* %1, align 4
  %27 = sext i32 %26 to i64
  %28 = getelementptr inbounds [6 x i32], [6 x i32]* %2, i64 0, i64 %27
  %29 = load i32, i32* %28, align 4
  %30 = call i32 @reverse(i32 %29)
  %31 = load i32, i32* %1, align 4
  %32 = sext i32 %31 to i64
  %33 = getelementptr inbounds [6 x i32], [6 x i32]* %3, i64 0, i64 %32
  store i32 %30, i32* %33, align 4
  br label %45

34:                                               ; preds = %19
  %35 = load i32, i32* %1, align 4
  %36 = sext i32 %35 to i64
  %37 = getelementptr inbounds [6 x i32], [6 x i32]* %2, i64 0, i64 %36
  %38 = load i32, i32* %37, align 4
  %39 = sub nsw i32 0, %38
  %40 = call i32 @reverse(i32 %39)
  %41 = mul nsw i32 -1, %40
  %42 = load i32, i32* %1, align 4
  %43 = sext i32 %42 to i64
  %44 = getelementptr inbounds [6 x i32], [6 x i32]* %3, i64 0, i64 %43
  store i32 %41, i32* %44, align 4
  br label %45

45:                                               ; preds = %34, %25
  %46 = load i32, i32* %1, align 4
  %47 = sext i32 %46 to i64
  %48 = getelementptr inbounds [6 x i32], [6 x i32]* %3, i64 0, i64 %47
  %49 = load i32, i32* %48, align 4
  %50 = call i32 (i8*, ...) @printf(i8* getelementptr inbounds ([4 x i8], [4 x i8]* @.str.1, i64 0, i64 0), i32 %49)
  br label %51

51:                                               ; preds = %45
  %52 = load i32, i32* %1, align 4
  %53 = add nsw i32 %52, 1
  store i32 %53, i32* %1, align 4
  br label %16

54:                                               ; preds = %16
  ret void
}

declare dso_local i32 @__isoc99_scanf(i8*, ...) #1

; Function Attrs: noinline nounwind uwtable
define dso_local i32 @reverse(i32 %0) #0 {
  %2 = alloca i32, align 4
  %3 = alloca [7 x i32], align 16
  %4 = alloca [7 x i32], align 16
  %5 = alloca i32, align 4
  %6 = alloca i32, align 4
  %7 = alloca i32, align 4
  store i32 %0, i32* %2, align 4
  store i32 0, i32* %5, align 4
  br label %8

8:                                                ; preds = %23, %1
  %9 = load i32, i32* %5, align 4
  %10 = icmp slt i32 %9, 7
  br i1 %10, label %11, label %26

11:                                               ; preds = %8
  %12 = load i32, i32* %2, align 4
  %13 = sitofp i32 %12 to double
  %14 = load i32, i32* %5, align 4
  %15 = sitofp i32 %14 to double
  %16 = call double @pow(double 1.000000e+01, double %15) #4
  %17 = fdiv double %13, %16
  %18 = call double @llvm.floor.f64(double %17)
  %19 = fptosi double %18 to i32
  %20 = load i32, i32* %5, align 4
  %21 = sext i32 %20 to i64
  %22 = getelementptr inbounds [7 x i32], [7 x i32]* %3, i64 0, i64 %21
  store i32 %19, i32* %22, align 4
  br label %23

23:                                               ; preds = %11
  %24 = load i32, i32* %5, align 4
  %25 = add nsw i32 %24, 1
  store i32 %25, i32* %5, align 4
  br label %8

26:                                               ; preds = %8
  store i32 0, i32* %5, align 4
  br label %27

27:                                               ; preds = %46, %26
  %28 = load i32, i32* %5, align 4
  %29 = icmp slt i32 %28, 6
  br i1 %29, label %30, label %49

30:                                               ; preds = %27
  %31 = load i32, i32* %5, align 4
  %32 = sext i32 %31 to i64
  %33 = getelementptr inbounds [7 x i32], [7 x i32]* %3, i64 0, i64 %32
  %34 = load i32, i32* %33, align 4
  %35 = load i32, i32* %5, align 4
  %36 = add nsw i32 %35, 1
  %37 = sext i32 %36 to i64
  %38 = getelementptr inbounds [7 x i32], [7 x i32]* %3, i64 0, i64 %37
  %39 = load i32, i32* %38, align 4
  %40 = mul nsw i32 10, %39
  %41 = sub nsw i32 %34, %40
  %42 = load i32, i32* %5, align 4
  %43 = sub nsw i32 6, %42
  %44 = sext i32 %43 to i64
  %45 = getelementptr inbounds [7 x i32], [7 x i32]* %4, i64 0, i64 %44
  store i32 %41, i32* %45, align 4
  br label %46

46:                                               ; preds = %30
  %47 = load i32, i32* %5, align 4
  %48 = add nsw i32 %47, 1
  store i32 %48, i32* %5, align 4
  br label %27

49:                                               ; preds = %27
  %50 = getelementptr inbounds [7 x i32], [7 x i32]* %3, i64 0, i64 6
  %51 = load i32, i32* %50, align 8
  %52 = getelementptr inbounds [7 x i32], [7 x i32]* %4, i64 0, i64 0
  store i32 %51, i32* %52, align 16
  store i32 0, i32* %6, align 4
  store i32 0, i32* %5, align 4
  br label %53

53:                                               ; preds = %67, %49
  %54 = load i32, i32* %5, align 4
  %55 = icmp slt i32 %54, 7
  br i1 %55, label %56, label %70

56:                                               ; preds = %53
  %57 = load i32, i32* %5, align 4
  %58 = sext i32 %57 to i64
  %59 = getelementptr inbounds [7 x i32], [7 x i32]* %4, i64 0, i64 %58
  %60 = load i32, i32* %59, align 4
  %61 = icmp eq i32 %60, 0
  br i1 %61, label %62, label %65

62:                                               ; preds = %56
  %63 = load i32, i32* %6, align 4
  %64 = add nsw i32 %63, 1
  store i32 %64, i32* %6, align 4
  br label %66

65:                                               ; preds = %56
  br label %70

66:                                               ; preds = %62
  br label %67

67:                                               ; preds = %66
  %68 = load i32, i32* %5, align 4
  %69 = add nsw i32 %68, 1
  store i32 %69, i32* %5, align 4
  br label %53

70:                                               ; preds = %65, %53
  store i32 0, i32* %7, align 4
  %71 = load i32, i32* %6, align 4
  %72 = sub nsw i32 %71, 1
  store i32 %72, i32* %5, align 4
  br label %73

73:                                               ; preds = %92, %70
  %74 = load i32, i32* %5, align 4
  %75 = icmp slt i32 %74, 7
  br i1 %75, label %76, label %95

76:                                               ; preds = %73
  %77 = load i32, i32* %7, align 4
  %78 = sitofp i32 %77 to double
  %79 = load i32, i32* %5, align 4
  %80 = load i32, i32* %6, align 4
  %81 = sub nsw i32 %79, %80
  %82 = sitofp i32 %81 to double
  %83 = call double @pow(double 1.000000e+01, double %82) #4
  %84 = load i32, i32* %5, align 4
  %85 = sext i32 %84 to i64
  %86 = getelementptr inbounds [7 x i32], [7 x i32]* %4, i64 0, i64 %85
  %87 = load i32, i32* %86, align 4
  %88 = sitofp i32 %87 to double
  %89 = fmul double %83, %88
  %90 = fadd double %78, %89
  %91 = fptosi double %90 to i32
  store i32 %91, i32* %7, align 4
  br label %92

92:                                               ; preds = %76
  %93 = load i32, i32* %5, align 4
  %94 = add nsw i32 %93, 1
  store i32 %94, i32* %5, align 4
  br label %73

95:                                               ; preds = %73
  %96 = load i32, i32* %7, align 4
  ret i32 %96
}

declare dso_local i32 @printf(i8*, ...) #1

; Function Attrs: nounwind
declare dso_local double @pow(double, double) #2

; Function Attrs: nounwind readnone speculatable willreturn
declare double @llvm.floor.f64(double) #3


!llvm.module.flags = !{!0}
!llvm.ident = !{!1}

!0 = !{i32 1, !"wchar_size", i32 4}
!1 = !{!"clang version 10.0.0-4ubuntu1 "}
